; Function Attrs: mustprogress uwtable
define void @_ZN7rocksdb22GetStringFromDBOptionsERKNS_13ConfigOptionsERKNS_9DBOptionsEPNSt7__cxx1112basic_stringIcSt11char_traitsIcESaIcEEE(ptr dead_on_unwind noalias writable sret(%"class.rocksdb::Status") align 8 %0, ptr noundef nonnull align 8 dereferenceable(80) %1, ptr noundef nonnull align 8 dereferenceable(706) %2, ptr noundef initializes((8, 16)) %3) local_unnamed_addr #1 personality ptr @__gxx_personality_v0 {
  %5 = alloca %"class.std::unique_ptr.34", align 8
  %6 = getelementptr inbounds nuw i8, ptr %3, i64 8
  store i64 0, ptr %6, align 8, !tbaa !28
  %7 = load ptr, ptr %3, align 8, !tbaa !33
  store i8 0, ptr %7, align 1, !tbaa !27
  call void @llvm.lifetime.start.p0(i64 8, ptr nonnull %5) #27
  call void @_ZN7rocksdb23DBOptionsAsConfigurableERKNS_9DBOptionsEPKSt13unordered_mapINSt7__cxx1112basic_stringIcSt11char_traitsIcESaIcEEES9_St4hashIS9_ESt8equal_toIS9_ESaISt4pairIKS9_S9_EEE(ptr dead_on_unwind nonnull writable sret(%"class.std::unique_ptr.34") align 8 %5, ptr noundef nonnull align 8 dereferenceable(706) %2, ptr noundef null)
  %8 = load ptr, ptr %5, align 8, !tbaa !91
  invoke void @_ZNK7rocksdb12Configurable15GetOptionStringERKNS_13ConfigOptionsEPNSt7__cxx1112basic_stringIcSt11char_traitsIcESaIcEEE(ptr dead_on_unwind writable sret(%"class.rocksdb::Status") align 8 %0, ptr noundef nonnull align 8 dereferenceable(32) %8, ptr noundef nonnull align 8 dereferenceable(80) %1, ptr noundef nonnull %3)
          to label %9 unwind label %14

9:                                                ; preds = %4
  %10 = load ptr, ptr %5, align 8, !tbaa !91
  %.not.i = icmp eq ptr %10, null
  br i1 %.not.i, label %_ZNSt10unique_ptrIN7rocksdb12ConfigurableESt14default_deleteIS1_EED2Ev.exit, label %_ZNKSt14default_deleteIN7rocksdb12ConfigurableEEclEPS1_.exit.i

_ZNKSt14default_deleteIN7rocksdb12ConfigurableEEclEPS1_.exit.i: ; preds = %9
  %11 = load ptr, ptr %10, align 8, !tbaa !85
  %12 = getelementptr inbounds nuw i8, ptr %11, i64 8
  %13 = load ptr, ptr %12, align 8
  call void %13(ptr noundef nonnull align 8 dereferenceable(32) %10) #27
  br label %_ZNSt10unique_ptrIN7rocksdb12ConfigurableESt14default_deleteIS1_EED2Ev.exit

_ZNSt10unique_ptrIN7rocksdb12ConfigurableESt14default_deleteIS1_EED2Ev.exit: ; preds = %9, %_ZNKSt14default_deleteIN7rocksdb12ConfigurableEEclEPS1_.exit.i
  call void @llvm.lifetime.end.p0(i64 8, ptr nonnull %5) #27
  ret void

14:                                               ; preds = %4
  %15 = landingpad { ptr, i32 }
          cleanup
  %16 = load ptr, ptr %5, align 8, !tbaa !91
  %.not.i5 = icmp eq ptr %16, null
  br i1 %.not.i5, label %_ZNSt10unique_ptrIN7rocksdb12ConfigurableESt14default_deleteIS1_EED2Ev.exit7, label %_ZNKSt14default_deleteIN7rocksdb12ConfigurableEEclEPS1_.exit.i6

_ZNKSt14default_deleteIN7rocksdb12ConfigurableEEclEPS1_.exit.i6: ; preds = %14
  %17 = load ptr, ptr %16, align 8, !tbaa !85
  %18 = getelementptr inbounds nuw i8, ptr %17, i64 8
  %19 = load ptr, ptr %18, align 8
  call void %19(ptr noundef nonnull align 8 dereferenceable(32) %16) #27
  br label %_ZNSt10unique_ptrIN7rocksdb12ConfigurableESt14default_deleteIS1_EED2Ev.exit7

_ZNSt10unique_ptrIN7rocksdb12ConfigurableESt14default_deleteIS1_EED2Ev.exit7: ; preds = %14, %_ZNKSt14default_deleteIN7rocksdb12ConfigurableEEclEPS1_.exit.i6
  call void @llvm.lifetime.end.p0(i64 8, ptr nonnull %5) #27
  resume { ptr, i32 } %15
}